target datalayout = "e-m:e-p270:32:32-p271:32:32-p272:64:64-i64:64-i128:128-f80:128-n8:16:32:64-S128"
target triple = "x86_64-pc-linux-gnu"

%struct.stbte__colorrect = type { i32, i32, i32, i32, i32 }
%struct.stbte__panel = type { i32, i32, i32, i32, i32, i32, i32, i32 }
%struct.stbte__ui_t = type { i32, i32, i32, i32, i32, i32, i32, i32, i32, i32, i32, i32, i32, i32, [2 x i32], [256 x %struct.stbte__colorrect], i32, i32, i32, i32, i32, i32, i32, i32, i32, i32, i32, i32, i32, i32, i32, i32, i32, i32, i32, i32, i32, i32, i32, i32, i32, i32, i32, i32, i32, i32, i32, i32, i32, i32, i32, i32, i32, i32, i32, i32, i32, float, ptr, float, [7 x %struct.stbte__panel], [65536 x [8 x i16]], [65536 x [1 x float]], i32, i32, ptr, i32, i32, i32, i32 }

; Function Attrs: nounwind uwtable
define void @stbte__activate(i32 noundef %0) #0 {
  %2 = alloca i32, align 4
  store i32 %0, ptr %2, align 4, !tbaa !13
  %3 = load i32, ptr %2, align 4, !tbaa !13
  store i32 %3, ptr getelementptr inbounds nuw (%struct.stbte__ui_t, ptr @stbte__ui, i32 0, i32 2), align 8, !tbaa !109
  %4 = load i32, ptr getelementptr inbounds nuw (%struct.stbte__ui_t, ptr @stbte__ui, i32 0, i32 5), align 4, !tbaa !110
  store i32 %4, ptr getelementptr inbounds nuw (%struct.stbte__ui_t, ptr @stbte__ui, i32 0, i32 1), align 4, !tbaa !111
  store i32 0, ptr getelementptr inbounds nuw (%struct.stbte__ui_t, ptr @stbte__ui, i32 0, i32 31), align 4, !tbaa !112
  store i32 0, ptr getelementptr inbounds nuw (%struct.stbte__ui_t, ptr @stbte__ui, i32 0, i32 32), align 8, !tbaa !113
  ret void
}

; Function Attrs: nounwind uwtable
define void @stbte__start_paste(ptr noundef %0) #0 {
  %2 = alloca ptr, align 8
  store ptr %0, ptr %2, align 8, !tbaa !25
  %3 = load i32, ptr getelementptr inbounds nuw (%struct.stbte__ui_t, ptr @stbte__ui, i32 0, i32 68), align 8, !tbaa !172
  %4 = icmp ne i32 %3, 0
  br i1 %4, label %5, label %6

5:                                                ; preds = %1
  store i32 1, ptr getelementptr inbounds nuw (%struct.stbte__ui_t, ptr @stbte__ui, i32 0, i32 23), align 4, !tbaa !196
  call void @stbte__activate(i32 noundef 390)
  br label %6

6:                                                ; preds = %5, %1
  ret void
}