; Function Attrs: mustprogress nofree norecurse nosync nounwind willreturn memory(readwrite, argmem: none, inaccessiblemem: none) uwtable
define void @stbte__start_paste(ptr noundef readnone captures(none) %0) local_unnamed_addr #18 {
  %2 = load i32, ptr getelementptr inbounds nuw (i8, ptr @stbte__ui, i64 1316336), align 8, !tbaa !159
  %.not = icmp eq i32 %2, 0
  br i1 %.not, label %5, label %3

3:                                                ; preds = %1
  store i32 1, ptr getelementptr inbounds nuw (i8, ptr @stbte__ui, i64 5212), align 4, !tbaa !183
  store i32 390, ptr getelementptr inbounds nuw (i8, ptr @stbte__ui, i64 8), align 8, !tbaa !94
  %4 = load i32, ptr getelementptr inbounds nuw (i8, ptr @stbte__ui, i64 20), align 4, !tbaa !95
  store i32 %4, ptr getelementptr inbounds nuw (i8, ptr @stbte__ui, i64 4), align 4, !tbaa !96
  store i32 0, ptr getelementptr inbounds nuw (i8, ptr @stbte__ui, i64 5244), align 4, !tbaa !97
  store i32 0, ptr getelementptr inbounds nuw (i8, ptr @stbte__ui, i64 5248), align 8, !tbaa !98
  br label %5

5:                                                ; preds = %3, %1
  ret void
}